target datalayout = "e-m:e-p270:32:32-p271:32:32-p272:64:64-i64:64-i128:128-f80:128-n8:16:32:64-S128"
target triple = "x86_64-pc-linux-gnu"

%struct.newhope_poly_st = type { [1024 x i16] }

; Function Attrs: nounwind uwtable
define hidden void @newhope_poly_frombytes(ptr noundef %0, ptr noundef %1) #0 {
  %3 = alloca ptr, align 8
  %4 = alloca ptr, align 8
  %5 = alloca i32, align 4
  store ptr %0, ptr %3, align 8, !tbaa !6
  store ptr %1, ptr %4, align 8, !tbaa !11
  call void @llvm.lifetime.start.p0(i64 4, ptr %5) #5
  store i32 0, ptr %5, align 4, !tbaa !13
  br label %6

6:                                                ; preds = %146, %2
  %7 = load i32, ptr %5, align 4, !tbaa !13
  %8 = icmp slt i32 %7, 256
  br i1 %8, label %9, label %149

9:                                                ; preds = %6
  %10 = load ptr, ptr %4, align 8, !tbaa !11
  %11 = load i32, ptr %5, align 4, !tbaa !13
  %12 = mul nsw i32 7, %11
  %13 = add nsw i32 %12, 0
  %14 = sext i32 %13 to i64
  %15 = getelementptr inbounds i8, ptr %10, i64 %14
  %16 = load i8, ptr %15, align 1, !tbaa !15
  %17 = zext i8 %16 to i32
  %18 = load ptr, ptr %4, align 8, !tbaa !11
  %19 = load i32, ptr %5, align 4, !tbaa !13
  %20 = mul nsw i32 7, %19
  %21 = add nsw i32 %20, 1
  %22 = sext i32 %21 to i64
  %23 = getelementptr inbounds i8, ptr %18, i64 %22
  %24 = load i8, ptr %23, align 1, !tbaa !15
  %25 = zext i8 %24 to i16
  %26 = zext i16 %25 to i32
  %27 = and i32 %26, 63
  %28 = shl i32 %27, 8
  %29 = or i32 %17, %28
  %30 = trunc i32 %29 to i16
  %31 = load ptr, ptr %3, align 8, !tbaa !6
  %32 = getelementptr inbounds nuw %struct.newhope_poly_st, ptr %31, i32 0, i32 0
  %33 = load i32, ptr %5, align 4, !tbaa !13
  %34 = mul nsw i32 4, %33
  %35 = add nsw i32 %34, 0
  %36 = sext i32 %35 to i64
  %37 = getelementptr inbounds [1024 x i16], ptr %32, i64 0, i64 %36
  store i16 %30, ptr %37, align 2, !tbaa !16
  %38 = load ptr, ptr %4, align 8, !tbaa !11
  %39 = load i32, ptr %5, align 4, !tbaa !13
  %40 = mul nsw i32 7, %39
  %41 = add nsw i32 %40, 1
  %42 = sext i32 %41 to i64
  %43 = getelementptr inbounds i8, ptr %38, i64 %42
  %44 = load i8, ptr %43, align 1, !tbaa !15
  %45 = zext i8 %44 to i32
  %46 = ashr i32 %45, 6
  %47 = load ptr, ptr %4, align 8, !tbaa !11
  %48 = load i32, ptr %5, align 4, !tbaa !13
  %49 = mul nsw i32 7, %48
  %50 = add nsw i32 %49, 2
  %51 = sext i32 %50 to i64
  %52 = getelementptr inbounds i8, ptr %47, i64 %51
  %53 = load i8, ptr %52, align 1, !tbaa !15
  %54 = zext i8 %53 to i16
  %55 = zext i16 %54 to i32
  %56 = shl i32 %55, 2
  %57 = or i32 %46, %56
  %58 = load ptr, ptr %4, align 8, !tbaa !11
  %59 = load i32, ptr %5, align 4, !tbaa !13
  %60 = mul nsw i32 7, %59
  %61 = add nsw i32 %60, 3
  %62 = sext i32 %61 to i64
  %63 = getelementptr inbounds i8, ptr %58, i64 %62
  %64 = load i8, ptr %63, align 1, !tbaa !15
  %65 = zext i8 %64 to i16
  %66 = zext i16 %65 to i32
  %67 = and i32 %66, 15
  %68 = shl i32 %67, 10
  %69 = or i32 %57, %68
  %70 = trunc i32 %69 to i16
  %71 = load ptr, ptr %3, align 8, !tbaa !6
  %72 = getelementptr inbounds nuw %struct.newhope_poly_st, ptr %71, i32 0, i32 0
  %73 = load i32, ptr %5, align 4, !tbaa !13
  %74 = mul nsw i32 4, %73
  %75 = add nsw i32 %74, 1
  %76 = sext i32 %75 to i64
  %77 = getelementptr inbounds [1024 x i16], ptr %72, i64 0, i64 %76
  store i16 %70, ptr %77, align 2, !tbaa !16
  %78 = load ptr, ptr %4, align 8, !tbaa !11
  %79 = load i32, ptr %5, align 4, !tbaa !13
  %80 = mul nsw i32 7, %79
  %81 = add nsw i32 %80, 3
  %82 = sext i32 %81 to i64
  %83 = getelementptr inbounds i8, ptr %78, i64 %82
  %84 = load i8, ptr %83, align 1, !tbaa !15
  %85 = zext i8 %84 to i32
  %86 = ashr i32 %85, 4
  %87 = load ptr, ptr %4, align 8, !tbaa !11
  %88 = load i32, ptr %5, align 4, !tbaa !13
  %89 = mul nsw i32 7, %88
  %90 = add nsw i32 %89, 4
  %91 = sext i32 %90 to i64
  %92 = getelementptr inbounds i8, ptr %87, i64 %91
  %93 = load i8, ptr %92, align 1, !tbaa !15
  %94 = zext i8 %93 to i16
  %95 = zext i16 %94 to i32
  %96 = shl i32 %95, 4
  %97 = or i32 %86, %96
  %98 = load ptr, ptr %4, align 8, !tbaa !11
  %99 = load i32, ptr %5, align 4, !tbaa !13
  %100 = mul nsw i32 7, %99
  %101 = add nsw i32 %100, 5
  %102 = sext i32 %101 to i64
  %103 = getelementptr inbounds i8, ptr %98, i64 %102
  %104 = load i8, ptr %103, align 1, !tbaa !15
  %105 = zext i8 %104 to i16
  %106 = zext i16 %105 to i32
  %107 = and i32 %106, 3
  %108 = shl i32 %107, 12
  %109 = or i32 %97, %108
  %110 = trunc i32 %109 to i16
  %111 = load ptr, ptr %3, align 8, !tbaa !6
  %112 = getelementptr inbounds nuw %struct.newhope_poly_st, ptr %111, i32 0, i32 0
  %113 = load i32, ptr %5, align 4, !tbaa !13
  %114 = mul nsw i32 4, %113
  %115 = add nsw i32 %114, 2
  %116 = sext i32 %115 to i64
  %117 = getelementptr inbounds [1024 x i16], ptr %112, i64 0, i64 %116
  store i16 %110, ptr %117, align 2, !tbaa !16
  %118 = load ptr, ptr %4, align 8, !tbaa !11
  %119 = load i32, ptr %5, align 4, !tbaa !13
  %120 = mul nsw i32 7, %119
  %121 = add nsw i32 %120, 5
  %122 = sext i32 %121 to i64
  %123 = getelementptr inbounds i8, ptr %118, i64 %122
  %124 = load i8, ptr %123, align 1, !tbaa !15
  %125 = zext i8 %124 to i32
  %126 = ashr i32 %125, 2
  %127 = load ptr, ptr %4, align 8, !tbaa !11
  %128 = load i32, ptr %5, align 4, !tbaa !13
  %129 = mul nsw i32 7, %128
  %130 = add nsw i32 %129, 6
  %131 = sext i32 %130 to i64
  %132 = getelementptr inbounds i8, ptr %127, i64 %131
  %133 = load i8, ptr %132, align 1, !tbaa !15
  %134 = zext i8 %133 to i16
  %135 = zext i16 %134 to i32
  %136 = shl i32 %135, 6
  %137 = or i32 %126, %136
  %138 = trunc i32 %137 to i16
  %139 = load ptr, ptr %3, align 8, !tbaa !6
  %140 = getelementptr inbounds nuw %struct.newhope_poly_st, ptr %139, i32 0, i32 0
  %141 = load i32, ptr %5, align 4, !tbaa !13
  %142 = mul nsw i32 4, %141
  %143 = add nsw i32 %142, 3
  %144 = sext i32 %143 to i64
  %145 = getelementptr inbounds [1024 x i16], ptr %140, i64 0, i64 %144
  store i16 %138, ptr %145, align 2, !tbaa !16
  br label %146

146:                                              ; preds = %9
  %147 = load i32, ptr %5, align 4, !tbaa !13
  %148 = add nsw i32 %147, 1
  store i32 %148, ptr %5, align 4, !tbaa !13
  br label %6, !llvm.loop !18

149:                                              ; preds = %6
  call void @llvm.lifetime.end.p0(i64 4, ptr %5) #5
  ret void
}