; Function Attrs: nofree norecurse nosync nounwind memory(argmem: readwrite) uwtable
define hidden void @newhope_poly_frombytes(ptr noundef writeonly captures(none) %0, ptr noundef readonly captures(none) %1) local_unnamed_addr #0 {
  br label %3

3:                                                ; preds = %2, %3
  %indvars.iv = phi i64 [ 0, %2 ], [ %indvars.iv.next, %3 ]
  %4 = mul nuw nsw i64 %indvars.iv, 7
  %5 = getelementptr inbounds nuw i8, ptr %1, i64 %4
  %6 = load i8, ptr %5, align 1, !tbaa !6
  %7 = zext i8 %6 to i16
  %8 = getelementptr inbounds nuw i8, ptr %5, i64 1
  %9 = load i8, ptr %8, align 1, !tbaa !6
  %10 = and i8 %9, 63
  %11 = zext nneg i8 %10 to i16
  %12 = shl nuw nsw i16 %11, 8
  %13 = or disjoint i16 %12, %7
  %14 = shl nuw nsw i64 %indvars.iv, 2
  %15 = getelementptr inbounds nuw [1024 x i16], ptr %0, i64 0, i64 %14
  store i16 %13, ptr %15, align 2, !tbaa !9
  %16 = load i8, ptr %8, align 1, !tbaa !6
  %17 = lshr i8 %16, 6
  %18 = zext nneg i8 %17 to i16
  %19 = getelementptr inbounds nuw i8, ptr %5, i64 2
  %20 = load i8, ptr %19, align 1, !tbaa !6
  %21 = zext i8 %20 to i16
  %22 = shl nuw nsw i16 %21, 2
  %23 = or disjoint i16 %22, %18
  %24 = getelementptr inbounds nuw i8, ptr %5, i64 3
  %25 = load i8, ptr %24, align 1, !tbaa !6
  %26 = and i8 %25, 15
  %27 = zext nneg i8 %26 to i16
  %28 = shl nuw nsw i16 %27, 10
  %29 = or disjoint i16 %28, %23
  %30 = or disjoint i64 %14, 1
  %31 = getelementptr inbounds nuw [1024 x i16], ptr %0, i64 0, i64 %30
  store i16 %29, ptr %31, align 2, !tbaa !9
  %32 = load i8, ptr %24, align 1, !tbaa !6
  %33 = lshr i8 %32, 4
  %34 = zext nneg i8 %33 to i16
  %35 = getelementptr inbounds nuw i8, ptr %5, i64 4
  %36 = load i8, ptr %35, align 1, !tbaa !6
  %37 = zext i8 %36 to i16
  %38 = shl nuw nsw i16 %37, 4
  %39 = or disjoint i16 %38, %34
  %40 = getelementptr inbounds nuw i8, ptr %5, i64 5
  %41 = load i8, ptr %40, align 1, !tbaa !6
  %42 = and i8 %41, 3
  %43 = zext nneg i8 %42 to i16
  %44 = shl nuw nsw i16 %43, 12
  %45 = or disjoint i16 %44, %39
  %46 = or disjoint i64 %14, 2
  %47 = getelementptr inbounds nuw [1024 x i16], ptr %0, i64 0, i64 %46
  store i16 %45, ptr %47, align 2, !tbaa !9
  %48 = load i8, ptr %40, align 1, !tbaa !6
  %49 = lshr i8 %48, 2
  %50 = zext nneg i8 %49 to i16
  %51 = getelementptr inbounds nuw i8, ptr %5, i64 6
  %52 = load i8, ptr %51, align 1, !tbaa !6
  %53 = zext i8 %52 to i16
  %54 = shl nuw nsw i16 %53, 6
  %55 = or disjoint i16 %54, %50
  %56 = or disjoint i64 %14, 3
  %57 = getelementptr inbounds nuw [1024 x i16], ptr %0, i64 0, i64 %56
  store i16 %55, ptr %57, align 2, !tbaa !9
  %indvars.iv.next = add nuw nsw i64 %indvars.iv, 1
  %exitcond.not = icmp eq i64 %indvars.iv.next, 256
  br i1 %exitcond.not, label %58, label %3, !llvm.loop !11

58:                                               ; preds = %3
  ret void
}